target datalayout = "e-m:e-p270:32:32-p271:32:32-p272:64:64-i64:64-i128:128-f80:128-n8:16:32:64-S128"
target triple = "x86_64-pc-linux-gnu"

%struct.AVFilterContext = type { ptr, ptr, ptr, ptr, ptr, i32, ptr, ptr, i32, ptr, ptr, i32, i32, ptr, ptr, ptr, ptr, i32, ptr, i32, i32 }
%struct.ADenormContext = type { ptr, double, double, i32, i64, [4 x ptr] }

; Function Attrs: nounwind uwtable
define internal void @dc_denorm_dblp(ptr noundef %0, ptr noundef %1, ptr noundef %2, i32 noundef %3) #1 {
  %5 = alloca ptr, align 8
  %6 = alloca ptr, align 8
  %7 = alloca ptr, align 8
  %8 = alloca i32, align 4
  %9 = alloca ptr, align 8
  %10 = alloca ptr, align 8
  %11 = alloca ptr, align 8
  %12 = alloca double, align 8
  %13 = alloca i32, align 4
  store ptr %0, ptr %5, align 8, !tbaa !23
  store ptr %1, ptr %6, align 8, !tbaa !52
  store ptr %2, ptr %7, align 8, !tbaa !52
  store i32 %3, ptr %8, align 4, !tbaa !53
  call void @llvm.lifetime.start.p0(i64 8, ptr %9) #6
  %14 = load ptr, ptr %5, align 8, !tbaa !23
  %15 = getelementptr inbounds nuw %struct.AVFilterContext, ptr %14, i32 0, i32 9
  %16 = load ptr, ptr %15, align 8, !tbaa !24
  store ptr %16, ptr %9, align 8, !tbaa !34
  call void @llvm.lifetime.start.p0(i64 8, ptr %10) #6
  %17 = load ptr, ptr %7, align 8, !tbaa !52
  store ptr %17, ptr %10, align 8, !tbaa !73
  call void @llvm.lifetime.start.p0(i64 8, ptr %11) #6
  %18 = load ptr, ptr %6, align 8, !tbaa !52
  store ptr %18, ptr %11, align 8, !tbaa !73
  call void @llvm.lifetime.start.p0(i64 8, ptr %12) #6
  %19 = load ptr, ptr %9, align 8, !tbaa !34
  %20 = getelementptr inbounds nuw %struct.ADenormContext, ptr %19, i32 0, i32 1
  %21 = load double, ptr %20, align 8, !tbaa !46
  store double %21, ptr %12, align 8, !tbaa !74
  call void @llvm.lifetime.start.p0(i64 4, ptr %13) #6
  store i32 0, ptr %13, align 4, !tbaa !53
  br label %22

22:                                               ; preds = %39, %4
  %23 = load i32, ptr %13, align 4, !tbaa !53
  %24 = load i32, ptr %8, align 4, !tbaa !53
  %25 = icmp slt i32 %23, %24
  br i1 %25, label %27, label %26

26:                                               ; preds = %22
  call void @llvm.lifetime.end.p0(i64 4, ptr %13) #6
  br label %42

27:                                               ; preds = %22
  %28 = load ptr, ptr %10, align 8, !tbaa !73
  %29 = load i32, ptr %13, align 4, !tbaa !53
  %30 = sext i32 %29 to i64
  %31 = getelementptr inbounds double, ptr %28, i64 %30
  %32 = load double, ptr %31, align 8, !tbaa !74
  %33 = load double, ptr %12, align 8, !tbaa !74
  %34 = fadd nsz double %32, %33
  %35 = load ptr, ptr %11, align 8, !tbaa !73
  %36 = load i32, ptr %13, align 4, !tbaa !53
  %37 = sext i32 %36 to i64
  %38 = getelementptr inbounds double, ptr %35, i64 %37
  store double %34, ptr %38, align 8, !tbaa !74
  br label %39

39:                                               ; preds = %27
  %40 = load i32, ptr %13, align 4, !tbaa !53
  %41 = add nsw i32 %40, 1
  store i32 %41, ptr %13, align 4, !tbaa !53
  br label %22, !llvm.loop !75

42:                                               ; preds = %26
  call void @llvm.lifetime.end.p0(i64 8, ptr %12) #6
  call void @llvm.lifetime.end.p0(i64 8, ptr %11) #6
  call void @llvm.lifetime.end.p0(i64 8, ptr %10) #6
  call void @llvm.lifetime.end.p0(i64 8, ptr %9) #6
  ret void
}